; Function Attrs: nounwind uwtable
define internal void @init_completed(ptr noundef %0) #0 {
  %2 = getelementptr inbounds nuw i8, ptr %0, i64 24
  %3 = load ptr, ptr %2, align 8, !tbaa !109
  %.not.i = icmp eq ptr %3, null
  br i1 %.not.i, label %Curl_detach_connection.exit, label %4

4:                                                ; preds = %1
  %5 = getelementptr inbounds nuw i8, ptr %0, i64 64
  tail call void @Curl_node_remove(ptr noundef nonnull %5) #19
  br label %Curl_detach_connection.exit

Curl_detach_connection.exit:                      ; preds = %1, %4
  store ptr null, ptr %2, align 8, !tbaa !109
  %6 = getelementptr inbounds nuw i8, ptr %0, i64 208
  %7 = load ptr, ptr %6, align 8, !tbaa !92
  %8 = getelementptr inbounds nuw i8, ptr %0, i64 3512
  %.not.i2 = icmp eq ptr %7, null
  br i1 %.not.i2, label %Curl_expire_clear.exit, label %9

9:                                                ; preds = %Curl_detach_connection.exit
  %10 = load i64, ptr %8, align 8, !tbaa !135
  %.not24.i = icmp eq i64 %10, 0
  br i1 %.not24.i, label %11, label %14

11:                                               ; preds = %9
  %12 = getelementptr inbounds nuw i8, ptr %0, i64 3520
  %13 = load i32, ptr %12, align 8, !tbaa !136
  %.not25.i = icmp eq i32 %13, 0
  br i1 %.not25.i, label %Curl_expire_clear.exit, label %14

14:                                               ; preds = %11, %9
  %15 = getelementptr inbounds nuw i8, ptr %0, i64 3584
  %16 = getelementptr inbounds nuw i8, ptr %7, i64 264
  %17 = load ptr, ptr %16, align 8, !tbaa !137
  %18 = getelementptr inbounds nuw i8, ptr %0, i64 3528
  %19 = tail call i32 @Curl_splayremove(ptr noundef %17, ptr noundef nonnull %18, ptr noundef nonnull %16) #19
  %.not28.i = icmp eq i32 %19, 0
  br i1 %.not28.i, label %32, label %20

20:                                               ; preds = %14
  %21 = getelementptr inbounds nuw i8, ptr %0, i64 2658
  %22 = load i64, ptr %21, align 2
  %23 = and i64 %22, 2147483648
  %.not26.i = icmp eq i64 %23, 0
  br i1 %.not26.i, label %32, label %24

24:                                               ; preds = %20
  %25 = getelementptr inbounds nuw i8, ptr %0, i64 4864
  %26 = load ptr, ptr %25, align 8, !tbaa !138
  %.not27.i = icmp eq ptr %26, null
  br i1 %.not27.i, label %31, label %27

27:                                               ; preds = %24
  %28 = getelementptr inbounds nuw i8, ptr %26, i64 8
  %29 = load i32, ptr %28, align 8, !tbaa !139
  %30 = icmp sgt i32 %29, 0
  br i1 %30, label %31, label %32

31:                                               ; preds = %27, %24
  tail call void (ptr, ptr, ...) @Curl_infof(ptr noundef nonnull %0, ptr noundef nonnull @.str.1, i32 noundef %19) #19
  br label %32

32:                                               ; preds = %31, %27, %20, %14
  tail call void @Curl_llist_destroy(ptr noundef nonnull %15, ptr noundef null) #19
  store i64 0, ptr %8, align 8, !tbaa !135
  %33 = getelementptr inbounds nuw i8, ptr %0, i64 3520
  store i32 0, ptr %33, align 8, !tbaa !136
  br label %Curl_expire_clear.exit

Curl_expire_clear.exit:                           ; preds = %Curl_detach_connection.exit, %11, %32
  ret void
}